target datalayout = "e-m:e-p270:32:32-p271:32:32-p272:64:64-i64:64-i128:128-f80:128-n8:16:32:64-S128"
target triple = "x86_64-pc-linux-gnu"

%struct._zend_accel_globals = type { i8, i8, i8, i8, i8, %struct._zend_accel_directives, ptr, ptr, [32 x i8], [32 x i8], i32, i8, i32, i8, i32, i64, i64, %struct._zend_array, i64, ptr, ptr, ptr, ptr, %struct._zend_string, [32768 x i8] }
%struct._zend_accel_directives = type { i64, i64, double, ptr, i64, i8, i8, i8, i8, i8, i8, i8, i8, i8, i8, i8, i64, i64, ptr, ptr, i64, i64, i64, i64, i64, ptr, ptr, ptr, i8, i8, i8, ptr, ptr }
%struct._zend_array = type { %struct._zend_refcounted_h, %union.anon.0, i32, %union.anon.1, i32, i32, i32, i32, i64, ptr }
%struct._zend_refcounted_h = type { i32, %union.anon }
%union.anon = type { i32 }
%union.anon.0 = type { i32 }
%union.anon.1 = type { ptr }
%struct._zend_string = type { %struct._zend_refcounted_h, i64, i64, [1 x i8] }
%struct._zend_accel_hash = type { ptr, ptr, i32, i32, i32 }
%struct._zend_accel_hash_entry = type { i64, ptr, ptr, ptr, i8 }

@accel_globals = external global %struct._zend_accel_globals, align 8

; Function Attrs: nounwind uwtable
define hidden i32 @zend_accel_hash_unlink(ptr noundef %0, ptr noundef %1) #0 {
  %3 = alloca ptr, align 8
  %4 = alloca ptr, align 8
  %5 = alloca ptr, align 8
  %6 = alloca ptr, align 8
  %7 = alloca ptr, align 8
  %8 = alloca i32, align 4
  %9 = alloca ptr, align 8
  %10 = alloca ptr, align 8
  %11 = alloca i64, align 8
  %12 = alloca i64, align 8
  %13 = alloca ptr, align 8
  %14 = alloca ptr, align 8
  store ptr %0, ptr %9, align 8
  store ptr %1, ptr %10, align 8
  store ptr null, ptr %14, align 8
  %15 = load ptr, ptr %10, align 8
  store ptr %15, ptr %7, align 8
  %16 = load ptr, ptr %7, align 8
  %17 = getelementptr inbounds %struct._zend_string, ptr %16, i32 0, i32 1
  %18 = load i64, ptr %17, align 8
  %19 = icmp ne i64 %18, 0
  br i1 %19, label %20, label %24

20:                                               ; preds = %2
  %21 = load ptr, ptr %7, align 8
  %22 = getelementptr inbounds %struct._zend_string, ptr %21, i32 0, i32 1
  %23 = load i64, ptr %22, align 8
  br label %27

24:                                               ; preds = %2
  %25 = load ptr, ptr %7, align 8
  %26 = call i64 @zend_string_hash_func(ptr noundef %25) #5
  br label %27

27:                                               ; preds = %24, %20
  %28 = phi i64 [ %23, %20 ], [ %26, %24 ]
  store i64 %28, ptr %11, align 8
  %29 = load i64, ptr getelementptr inbounds (%struct._zend_accel_globals, ptr @accel_globals, i32 0, i32 18), align 8
  %30 = load i64, ptr %11, align 8
  %31 = xor i64 %30, %29
  store i64 %31, ptr %11, align 8
  %32 = load i64, ptr %11, align 8
  %33 = load ptr, ptr %9, align 8
  %34 = getelementptr inbounds %struct._zend_accel_hash, ptr %33, i32 0, i32 3
  %35 = load i32, ptr %34, align 4
  %36 = zext i32 %35 to i64
  %37 = urem i64 %32, %36
  store i64 %37, ptr %12, align 8
  %38 = load ptr, ptr %9, align 8
  %39 = getelementptr inbounds %struct._zend_accel_hash, ptr %38, i32 0, i32 0
  %40 = load ptr, ptr %39, align 8
  %41 = load i64, ptr %12, align 8
  %42 = getelementptr inbounds ptr, ptr %40, i64 %41
  %43 = load ptr, ptr %42, align 8
  store ptr %43, ptr %13, align 8
  br label %44

44:                                               ; preds = %108, %27
  %45 = load ptr, ptr %13, align 8
  %46 = icmp ne ptr %45, null
  br i1 %46, label %47, label %113

47:                                               ; preds = %44
  %48 = load ptr, ptr %13, align 8
  %49 = getelementptr inbounds %struct._zend_accel_hash_entry, ptr %48, i32 0, i32 0
  %50 = load i64, ptr %49, align 8
  %51 = load i64, ptr %11, align 8
  %52 = icmp eq i64 %50, %51
  br i1 %52, label %53, label %108

53:                                               ; preds = %47
  %54 = load ptr, ptr %13, align 8
  %55 = getelementptr inbounds %struct._zend_accel_hash_entry, ptr %54, i32 0, i32 1
  %56 = load ptr, ptr %55, align 8
  %57 = load ptr, ptr %10, align 8
  store ptr %56, ptr %5, align 8
  store ptr %57, ptr %6, align 8
  %58 = load ptr, ptr %5, align 8
  %59 = load ptr, ptr %6, align 8
  %60 = icmp eq ptr %58, %59
  br i1 %60, label %77, label %61

61:                                               ; preds = %53
  %62 = load ptr, ptr %5, align 8
  %63 = load ptr, ptr %6, align 8
  store ptr %62, ptr %3, align 8
  store ptr %63, ptr %4, align 8
  %64 = load ptr, ptr %3, align 8
  %65 = getelementptr inbounds %struct._zend_string, ptr %64, i32 0, i32 2
  %66 = load i64, ptr %65, align 8
  %67 = load ptr, ptr %4, align 8
  %68 = getelementptr inbounds %struct._zend_string, ptr %67, i32 0, i32 2
  %69 = load i64, ptr %68, align 8
  %70 = icmp eq i64 %66, %69
  br i1 %70, label %71, label %75

71:                                               ; preds = %61
  %72 = load ptr, ptr %3, align 8
  %73 = load ptr, ptr %4, align 8
  %74 = call zeroext i1 @zend_string_equal_val(ptr noundef %72, ptr noundef %73) #5
  br label %75

75:                                               ; preds = %71, %61
  %76 = phi i1 [ false, %61 ], [ %74, %71 ]
  br label %77

77:                                               ; preds = %75, %53
  %78 = phi i1 [ true, %53 ], [ %76, %75 ]
  br i1 %78, label %79, label %108

79:                                               ; preds = %77
  %80 = load ptr, ptr %13, align 8
  %81 = getelementptr inbounds %struct._zend_accel_hash_entry, ptr %80, i32 0, i32 4
  %82 = load i8, ptr %81, align 8
  %83 = trunc i8 %82 to i1
  br i1 %83, label %89, label %84

84:                                               ; preds = %79
  %85 = load ptr, ptr %9, align 8
  %86 = getelementptr inbounds %struct._zend_accel_hash, ptr %85, i32 0, i32 4
  %87 = load i32, ptr %86, align 8
  %88 = add i32 %87, -1
  store i32 %88, ptr %86, align 8
  br label %89

89:                                               ; preds = %84, %79
  %90 = load ptr, ptr %14, align 8
  %91 = icmp ne ptr %90, null
  br i1 %91, label %92, label %98

92:                                               ; preds = %89
  %93 = load ptr, ptr %13, align 8
  %94 = getelementptr inbounds %struct._zend_accel_hash_entry, ptr %93, i32 0, i32 2
  %95 = load ptr, ptr %94, align 8
  %96 = load ptr, ptr %14, align 8
  %97 = getelementptr inbounds %struct._zend_accel_hash_entry, ptr %96, i32 0, i32 2
  store ptr %95, ptr %97, align 8
  br label %107

98:                                               ; preds = %89
  %99 = load ptr, ptr %13, align 8
  %100 = getelementptr inbounds %struct._zend_accel_hash_entry, ptr %99, i32 0, i32 2
  %101 = load ptr, ptr %100, align 8
  %102 = load ptr, ptr %9, align 8
  %103 = getelementptr inbounds %struct._zend_accel_hash, ptr %102, i32 0, i32 0
  %104 = load ptr, ptr %103, align 8
  %105 = load i64, ptr %12, align 8
  %106 = getelementptr inbounds ptr, ptr %104, i64 %105
  store ptr %101, ptr %106, align 8
  br label %107

107:                                              ; preds = %98, %92
  store i32 0, ptr %8, align 4
  br label %114

108:                                              ; preds = %77, %47
  %109 = load ptr, ptr %13, align 8
  store ptr %109, ptr %14, align 8
  %110 = load ptr, ptr %13, align 8
  %111 = getelementptr inbounds %struct._zend_accel_hash_entry, ptr %110, i32 0, i32 2
  %112 = load ptr, ptr %111, align 8
  store ptr %112, ptr %13, align 8
  br label %44

113:                                              ; preds = %44
  store i32 -1, ptr %8, align 4
  br label %114

114:                                              ; preds = %113, %107
  %115 = load i32, ptr %8, align 4
  ret i32 %115
}